target datalayout = "e-m:e-p270:32:32-p271:32:32-p272:64:64-i64:64-i128:128-f80:128-n8:16:32:64-S128"
target triple = "x86_64-unknown-linux-gnu"

%struct.CommitBlockJob = type { %struct.BlockJob, ptr, ptr, ptr, ptr, ptr, i32, i8, i8, ptr }
%struct.BlockJob = type { %struct.Job, i32, i64, %struct.RateLimit, ptr, %struct.Notifier, %struct.Notifier, %struct.Notifier, %struct.Notifier, %struct.Notifier, ptr }
%struct.Job = type { ptr, ptr, ptr, i8, i8, ptr, ptr, %struct.ProgressMeter, ptr, i32, i32, %struct.QEMUTimer, i32, i8, i8, i8, i8, i8, i8, i32, ptr, %struct.NotifierList, %struct.NotifierList, %struct.NotifierList, %struct.NotifierList, %struct.NotifierList, %struct.anon.0, ptr, %struct.anon.1 }
%struct.ProgressMeter = type { i64, i64, %struct.QemuMutex }
%struct.QemuMutex = type { %union.pthread_mutex_t, i8 }
%union.pthread_mutex_t = type { %struct.__pthread_mutex_s }
%struct.__pthread_mutex_s = type { i32, i32, i32, i32, i32, i16, i16, %struct.__pthread_internal_list }
%struct.__pthread_internal_list = type { ptr, ptr }
%struct.QEMUTimer = type { i64, ptr, ptr, ptr, ptr, i32, i32 }
%struct.NotifierList = type { %struct.anon }
%struct.anon = type { ptr }
%struct.anon.0 = type { ptr, ptr }
%struct.anon.1 = type { ptr, ptr }
%struct.RateLimit = type { %struct.QemuMutex, i64, i64, i64, i64, i64 }
%struct.Notifier = type { ptr, %struct.anon.2 }
%struct.anon.2 = type { ptr, ptr }

; Function Attrs: nounwind sspstrong uwtable
define internal void @commit_clean(ptr noundef %job) #0 {
entry:
  %job.addr = alloca ptr, align 8
  %s = alloca ptr, align 8
  %__mptr = alloca ptr, align 8
  %tmp = alloca ptr, align 8
  store ptr %job, ptr %job.addr, align 8
  %0 = load ptr, ptr %job.addr, align 8
  store ptr %0, ptr %__mptr, align 8
  %1 = load ptr, ptr %__mptr, align 8
  %add.ptr = getelementptr i8, ptr %1, i64 0
  store ptr %add.ptr, ptr %tmp, align 8
  %2 = load ptr, ptr %tmp, align 8
  store ptr %2, ptr %s, align 8
  %3 = load ptr, ptr %s, align 8
  %base_read_only = getelementptr inbounds %struct.CommitBlockJob, ptr %3, i32 0, i32 7
  %4 = load i8, ptr %base_read_only, align 4
  %tobool = trunc i8 %4 to i1
  br i1 %tobool, label %if.then, label %if.end

if.then:                                          ; preds = %entry
  %5 = load ptr, ptr %s, align 8
  %base_bs = getelementptr inbounds %struct.CommitBlockJob, ptr %5, i32 0, i32 4
  %6 = load ptr, ptr %base_bs, align 8
  %call = call i32 @bdrv_reopen_set_read_only(ptr noundef %6, i1 noundef zeroext true, ptr noundef null)
  br label %if.end

if.end:                                           ; preds = %if.then, %entry
  %7 = load ptr, ptr %s, align 8
  %backing_file_str = getelementptr inbounds %struct.CommitBlockJob, ptr %7, i32 0, i32 9
  %8 = load ptr, ptr %backing_file_str, align 8
  call void @g_free(ptr noundef %8)
  %9 = load ptr, ptr %s, align 8
  %top = getelementptr inbounds %struct.CommitBlockJob, ptr %9, i32 0, i32 2
  %10 = load ptr, ptr %top, align 8
  call void @blk_unref(ptr noundef %10)
  ret void
}