; Function Attrs: nounwind sspstrong uwtable
define internal void @commit_clean(ptr noundef readonly captures(none) %job) #0 {
entry:
  %base_read_only = getelementptr inbounds nuw i8, ptr %job, i64 564
  %0 = load i8, ptr %base_read_only, align 4
  %tobool = trunc i8 %0 to i1
  br i1 %tobool, label %if.then, label %if.end

if.then:                                          ; preds = %entry
  %base_bs = getelementptr inbounds nuw i8, ptr %job, i64 544
  %1 = load ptr, ptr %base_bs, align 8
  %call = tail call i32 @bdrv_reopen_set_read_only(ptr noundef %1, i1 noundef zeroext true, ptr noundef null) #6
  br label %if.end

if.end:                                           ; preds = %if.then, %entry
  %backing_file_str = getelementptr inbounds nuw i8, ptr %job, i64 568
  %2 = load ptr, ptr %backing_file_str, align 8
  tail call void @g_free(ptr noundef %2) #6
  %top = getelementptr inbounds nuw i8, ptr %job, i64 528
  %3 = load ptr, ptr %top, align 8
  tail call void @blk_unref(ptr noundef %3) #6
  ret void
}